target datalayout = "e-m:e-p270:32:32-p271:32:32-p272:64:64-i64:64-i128:128-f80:128-n8:16:32:64-S128"
target triple = "x86_64-pc-linux-gnu"

%struct.ARKodeMemRec = type { ptr, double, ptr, i32, i32, double, double, ptr, i32, double, ptr, i32, i32, ptr, ptr, i32, ptr, ptr, i32, ptr, ptr, ptr, ptr, ptr, ptr, ptr, ptr, ptr, ptr, ptr, ptr, ptr, ptr, ptr, i32, ptr, ptr, i32, ptr, i32, ptr, ptr, ptr, ptr, ptr, ptr, ptr, ptr, ptr, ptr, ptr, ptr, ptr, ptr, ptr, ptr, ptr, ptr, ptr, ptr, ptr, ptr, ptr, ptr, ptr, ptr, i32, ptr, ptr, ptr, ptr, ptr, ptr, ptr, i32, ptr, ptr, ptr, i32, ptr, ptr, ptr, ptr, ptr, ptr, ptr, i32, i32, i32, i32, double, double, double, double, double, double, double, double, double, double, i32, ptr, i64, i32, i32, i32, i32, i64, i64, i32, i64, i64, i64, i64, i64, i64, i64, double, double, double, double, double, i32, double, double, i32, i32, i32, i32, i32, i32, i32, i32, ptr, i32, ptr, ptr, ptr, ptr, i32, i32, i32 }
%struct.ARKodeHAdaptMemRec = type { double, double, double, double, i32, double, double, double, double, double, double, i32, i32, i32, i32, ptr, i32, ptr, ptr, i64, i64 }

@.str = private unnamed_addr constant [115 x i8] c"generated/home/dtcxzyw/WorkSpace/Projects/compilers/llvm-opt-benchmark/bench/sundials/sundials/src/arkode/arkode.c\00", align 1
@__func__.arkCompleteStep = private unnamed_addr constant [16 x i8] c"arkCompleteStep\00", align 1
@.str.108 = private unnamed_addr constant [35 x i8] c"Failure updating controller object\00", align 1

; Function Attrs: inlinehint nounwind uwtable
define internal void @sunCompensatedSum(double noundef %0, double noundef %1, ptr noundef %2, ptr noundef %3) #7 {
  %5 = alloca double, align 8
  %6 = alloca double, align 8
  %7 = alloca ptr, align 8
  %8 = alloca ptr, align 8
  %9 = alloca double, align 8
  %10 = alloca double, align 8
  %11 = alloca double, align 8
  store double %0, ptr %5, align 8, !tbaa !9
  store double %1, ptr %6, align 8, !tbaa !9
  store ptr %2, ptr %7, align 8, !tbaa !104
  store ptr %3, ptr %8, align 8, !tbaa !104
  call void @llvm.lifetime.start.p0(i64 8, ptr %9) #10
  %12 = load ptr, ptr %8, align 8, !tbaa !104
  %13 = load double, ptr %12, align 8, !tbaa !9
  store double %13, ptr %9, align 8, !tbaa !9
  call void @llvm.lifetime.start.p0(i64 8, ptr %10) #10
  %14 = load double, ptr %6, align 8, !tbaa !9
  %15 = load double, ptr %9, align 8, !tbaa !9
  %16 = fsub double %14, %15
  store volatile double %16, ptr %10, align 8, !tbaa !9
  call void @llvm.lifetime.start.p0(i64 8, ptr %11) #10
  %17 = load double, ptr %5, align 8, !tbaa !9
  %18 = load volatile double, ptr %10, align 8, !tbaa !9
  %19 = fadd double %17, %18
  store volatile double %19, ptr %11, align 8, !tbaa !9
  %20 = load volatile double, ptr %11, align 8, !tbaa !9
  %21 = load double, ptr %5, align 8, !tbaa !9
  %22 = fsub double %20, %21
  %23 = load volatile double, ptr %10, align 8, !tbaa !9
  %24 = fsub double %22, %23
  %25 = load ptr, ptr %8, align 8, !tbaa !104
  store double %24, ptr %25, align 8, !tbaa !9
  %26 = load volatile double, ptr %11, align 8, !tbaa !9
  %27 = load ptr, ptr %7, align 8, !tbaa !104
  store double %26, ptr %27, align 8, !tbaa !9
  call void @llvm.lifetime.end.p0(i64 8, ptr %11) #10
  call void @llvm.lifetime.end.p0(i64 8, ptr %10) #10
  call void @llvm.lifetime.end.p0(i64 8, ptr %9) #10
  ret void
}

; Function Attrs: nounwind uwtable
define i32 @arkCompleteStep(ptr noundef %0, double noundef %1) #0 {
  %3 = alloca i32, align 4
  %4 = alloca ptr, align 8
  %5 = alloca double, align 8
  %6 = alloca i32, align 4
  %7 = alloca double, align 8
  %8 = alloca i32, align 4
  store ptr %0, ptr %4, align 8, !tbaa !11
  store double %1, ptr %5, align 8, !tbaa !9
  call void @llvm.lifetime.start.p0(i64 4, ptr %6) #10
  call void @llvm.lifetime.start.p0(i64 8, ptr %7) #10
  %9 = load ptr, ptr %4, align 8, !tbaa !11
  %10 = getelementptr inbounds nuw %struct.ARKodeMemRec, ptr %9, i32 0, i32 139
  %11 = load i32, ptr %10, align 8, !tbaa !148
  %12 = icmp ne i32 %11, 0
  br i1 %12, label %13, label %24

13:                                               ; preds = %2
  %14 = load ptr, ptr %4, align 8, !tbaa !11
  %15 = getelementptr inbounds nuw %struct.ARKodeMemRec, ptr %14, i32 0, i32 118
  %16 = load double, ptr %15, align 8, !tbaa !23
  %17 = load ptr, ptr %4, align 8, !tbaa !11
  %18 = getelementptr inbounds nuw %struct.ARKodeMemRec, ptr %17, i32 0, i32 92
  %19 = load double, ptr %18, align 8, !tbaa !29
  %20 = load ptr, ptr %4, align 8, !tbaa !11
  %21 = getelementptr inbounds nuw %struct.ARKodeMemRec, ptr %20, i32 0, i32 98
  %22 = load ptr, ptr %4, align 8, !tbaa !11
  %23 = getelementptr inbounds nuw %struct.ARKodeMemRec, ptr %22, i32 0, i32 119
  call void @sunCompensatedSum(double noundef %16, double noundef %19, ptr noundef %21, ptr noundef %23)
  br label %34

24:                                               ; preds = %2
  %25 = load ptr, ptr %4, align 8, !tbaa !11
  %26 = getelementptr inbounds nuw %struct.ARKodeMemRec, ptr %25, i32 0, i32 118
  %27 = load double, ptr %26, align 8, !tbaa !23
  %28 = load ptr, ptr %4, align 8, !tbaa !11
  %29 = getelementptr inbounds nuw %struct.ARKodeMemRec, ptr %28, i32 0, i32 92
  %30 = load double, ptr %29, align 8, !tbaa !29
  %31 = fadd double %27, %30
  %32 = load ptr, ptr %4, align 8, !tbaa !11
  %33 = getelementptr inbounds nuw %struct.ARKodeMemRec, ptr %32, i32 0, i32 98
  store double %31, ptr %33, align 8, !tbaa !22
  br label %34

34:                                               ; preds = %24, %13
  %35 = load ptr, ptr %4, align 8, !tbaa !11
  %36 = getelementptr inbounds nuw %struct.ARKodeMemRec, ptr %35, i32 0, i32 88
  %37 = load i32, ptr %36, align 8, !tbaa !26
  %38 = icmp ne i32 %37, 0
  br i1 %38, label %39, label %71

39:                                               ; preds = %34
  %40 = load ptr, ptr %4, align 8, !tbaa !11
  %41 = getelementptr inbounds nuw %struct.ARKodeMemRec, ptr %40, i32 0, i32 1
  %42 = load double, ptr %41, align 8, !tbaa !28
  %43 = fmul double 1.000000e+02, %42
  %44 = load ptr, ptr %4, align 8, !tbaa !11
  %45 = getelementptr inbounds nuw %struct.ARKodeMemRec, ptr %44, i32 0, i32 98
  %46 = load double, ptr %45, align 8, !tbaa !22
  %47 = call double @llvm.fabs.f64(double %46)
  %48 = load ptr, ptr %4, align 8, !tbaa !11
  %49 = getelementptr inbounds nuw %struct.ARKodeMemRec, ptr %48, i32 0, i32 92
  %50 = load double, ptr %49, align 8, !tbaa !29
  %51 = call double @llvm.fabs.f64(double %50)
  %52 = fadd double %47, %51
  %53 = fmul double %43, %52
  store double %53, ptr %7, align 8, !tbaa !9
  %54 = load ptr, ptr %4, align 8, !tbaa !11
  %55 = getelementptr inbounds nuw %struct.ARKodeMemRec, ptr %54, i32 0, i32 98
  %56 = load double, ptr %55, align 8, !tbaa !22
  %57 = load ptr, ptr %4, align 8, !tbaa !11
  %58 = getelementptr inbounds nuw %struct.ARKodeMemRec, ptr %57, i32 0, i32 90
  %59 = load double, ptr %58, align 8, !tbaa !27
  %60 = fsub double %56, %59
  %61 = call double @llvm.fabs.f64(double %60)
  %62 = load double, ptr %7, align 8, !tbaa !9
  %63 = fcmp ole double %61, %62
  br i1 %63, label %64, label %70

64:                                               ; preds = %39
  %65 = load ptr, ptr %4, align 8, !tbaa !11
  %66 = getelementptr inbounds nuw %struct.ARKodeMemRec, ptr %65, i32 0, i32 90
  %67 = load double, ptr %66, align 8, !tbaa !27
  %68 = load ptr, ptr %4, align 8, !tbaa !11
  %69 = getelementptr inbounds nuw %struct.ARKodeMemRec, ptr %68, i32 0, i32 98
  store double %67, ptr %69, align 8, !tbaa !22
  br label %70

70:                                               ; preds = %64, %39
  br label %71

71:                                               ; preds = %70, %34
  %72 = load ptr, ptr %4, align 8, !tbaa !11
  %73 = getelementptr inbounds nuw %struct.ARKodeMemRec, ptr %72, i32 0, i32 122
  %74 = load i32, ptr %73, align 8, !tbaa !149
  %75 = icmp ne i32 %74, 0
  br i1 %75, label %76, label %119

76:                                               ; preds = %71
  %77 = load ptr, ptr %4, align 8, !tbaa !11
  %78 = getelementptr inbounds nuw %struct.ARKodeMemRec, ptr %77, i32 0, i32 122
  %79 = load i32, ptr %78, align 8, !tbaa !149
  %80 = icmp eq i32 %79, 1
  br i1 %80, label %81, label %97

81:                                               ; preds = %76
  %82 = load double, ptr %5, align 8, !tbaa !9
  %83 = load ptr, ptr %4, align 8, !tbaa !11
  %84 = getelementptr inbounds nuw %struct.ARKodeMemRec, ptr %83, i32 0, i32 124
  %85 = load double, ptr %84, align 8, !tbaa !76
  %86 = fcmp ogt double %82, %85
  br i1 %86, label %87, label %89

87:                                               ; preds = %81
  %88 = load double, ptr %5, align 8, !tbaa !9
  br label %93

89:                                               ; preds = %81
  %90 = load ptr, ptr %4, align 8, !tbaa !11
  %91 = getelementptr inbounds nuw %struct.ARKodeMemRec, ptr %90, i32 0, i32 124
  %92 = load double, ptr %91, align 8, !tbaa !76
  br label %93

93:                                               ; preds = %89, %87
  %94 = phi double [ %88, %87 ], [ %92, %89 ]
  %95 = load ptr, ptr %4, align 8, !tbaa !11
  %96 = getelementptr inbounds nuw %struct.ARKodeMemRec, ptr %95, i32 0, i32 124
  store double %94, ptr %96, align 8, !tbaa !76
  br label %118

97:                                               ; preds = %76
  %98 = load ptr, ptr %4, align 8, !tbaa !11
  %99 = getelementptr inbounds nuw %struct.ARKodeMemRec, ptr %98, i32 0, i32 122
  %100 = load i32, ptr %99, align 8, !tbaa !149
  %101 = icmp eq i32 %100, 2
  br i1 %101, label %102, label %108

102:                                              ; preds = %97
  %103 = load double, ptr %5, align 8, !tbaa !9
  %104 = load ptr, ptr %4, align 8, !tbaa !11
  %105 = getelementptr inbounds nuw %struct.ARKodeMemRec, ptr %104, i32 0, i32 124
  %106 = load double, ptr %105, align 8, !tbaa !76
  %107 = fadd double %106, %103
  store double %107, ptr %105, align 8, !tbaa !76
  br label %117

108:                                              ; preds = %97
  %109 = load double, ptr %5, align 8, !tbaa !9
  %110 = load ptr, ptr %4, align 8, !tbaa !11
  %111 = getelementptr inbounds nuw %struct.ARKodeMemRec, ptr %110, i32 0, i32 92
  %112 = load double, ptr %111, align 8, !tbaa !29
  %113 = load ptr, ptr %4, align 8, !tbaa !11
  %114 = getelementptr inbounds nuw %struct.ARKodeMemRec, ptr %113, i32 0, i32 124
  %115 = load double, ptr %114, align 8, !tbaa !76
  %116 = call double @llvm.fmuladd.f64(double %109, double %112, double %115)
  store double %116, ptr %114, align 8, !tbaa !76
  br label %117

117:                                              ; preds = %108, %102
  br label %118

118:                                              ; preds = %117, %93
  br label %119

119:                                              ; preds = %118, %71
  %120 = load ptr, ptr %4, align 8, !tbaa !11
  %121 = getelementptr inbounds nuw %struct.ARKodeMemRec, ptr %120, i32 0, i32 136
  %122 = load ptr, ptr %121, align 8, !tbaa !150
  %123 = icmp ne ptr %122, null
  br i1 %123, label %124, label %142

124:                                              ; preds = %119
  %125 = load ptr, ptr %4, align 8, !tbaa !11
  %126 = getelementptr inbounds nuw %struct.ARKodeMemRec, ptr %125, i32 0, i32 136
  %127 = load ptr, ptr %126, align 8, !tbaa !150
  %128 = load ptr, ptr %4, align 8, !tbaa !11
  %129 = getelementptr inbounds nuw %struct.ARKodeMemRec, ptr %128, i32 0, i32 98
  %130 = load double, ptr %129, align 8, !tbaa !22
  %131 = load ptr, ptr %4, align 8, !tbaa !11
  %132 = getelementptr inbounds nuw %struct.ARKodeMemRec, ptr %131, i32 0, i32 75
  %133 = load ptr, ptr %132, align 8, !tbaa !106
  %134 = load ptr, ptr %4, align 8, !tbaa !11
  %135 = getelementptr inbounds nuw %struct.ARKodeMemRec, ptr %134, i32 0, i32 137
  %136 = load ptr, ptr %135, align 8, !tbaa !151
  %137 = call i32 %127(double noundef %130, ptr noundef %133, ptr noundef %136)
  store i32 %137, ptr %6, align 4, !tbaa !38
  %138 = load i32, ptr %6, align 4, !tbaa !38
  %139 = icmp ne i32 %138, 0
  br i1 %139, label %140, label %141

140:                                              ; preds = %124
  store i32 -37, ptr %3, align 4
  store i32 1, ptr %8, align 4
  br label %229

141:                                              ; preds = %124
  br label %142

142:                                              ; preds = %141, %119
  %143 = load ptr, ptr %4, align 8, !tbaa !11
  %144 = getelementptr inbounds nuw %struct.ARKodeMemRec, ptr %143, i32 0, i32 85
  %145 = load ptr, ptr %144, align 8, !tbaa !39
  %146 = icmp ne ptr %145, null
  br i1 %146, label %147, label %161

147:                                              ; preds = %142
  %148 = load ptr, ptr %4, align 8, !tbaa !11
  %149 = load ptr, ptr %4, align 8, !tbaa !11
  %150 = getelementptr inbounds nuw %struct.ARKodeMemRec, ptr %149, i32 0, i32 85
  %151 = load ptr, ptr %150, align 8, !tbaa !39
  %152 = load ptr, ptr %4, align 8, !tbaa !11
  %153 = getelementptr inbounds nuw %struct.ARKodeMemRec, ptr %152, i32 0, i32 98
  %154 = load double, ptr %153, align 8, !tbaa !22
  %155 = call i32 @arkInterpUpdate(ptr noundef %148, ptr noundef %151, double noundef %154)
  store i32 %155, ptr %6, align 4, !tbaa !38
  %156 = load i32, ptr %6, align 4, !tbaa !38
  %157 = icmp ne i32 %156, 0
  br i1 %157, label %158, label %160

158:                                              ; preds = %147
  %159 = load i32, ptr %6, align 4, !tbaa !38
  store i32 %159, ptr %3, align 4
  store i32 1, ptr %8, align 4
  br label %229

160:                                              ; preds = %147
  br label %161

161:                                              ; preds = %160, %142
  %162 = load ptr, ptr %4, align 8, !tbaa !11
  %163 = getelementptr inbounds nuw %struct.ARKodeMemRec, ptr %162, i32 0, i32 75
  %164 = load ptr, ptr %163, align 8, !tbaa !106
  %165 = load ptr, ptr %4, align 8, !tbaa !11
  %166 = getelementptr inbounds nuw %struct.ARKodeMemRec, ptr %165, i32 0, i32 76
  %167 = load ptr, ptr %166, align 8, !tbaa !40
  call void @N_VScale(double noundef 1.000000e+00, ptr noundef %164, ptr noundef %167)
  %168 = load ptr, ptr %4, align 8, !tbaa !11
  %169 = getelementptr inbounds nuw %struct.ARKodeMemRec, ptr %168, i32 0, i32 78
  store i32 0, ptr %169, align 8, !tbaa !41
  %170 = load ptr, ptr %4, align 8, !tbaa !11
  %171 = getelementptr inbounds nuw %struct.ARKodeMemRec, ptr %170, i32 0, i32 101
  %172 = load ptr, ptr %171, align 8, !tbaa !70
  %173 = getelementptr inbounds nuw %struct.ARKodeHAdaptMemRec, ptr %172, i32 0, i32 15
  %174 = load ptr, ptr %173, align 8, !tbaa !71
  %175 = icmp ne ptr %174, null
  br i1 %175, label %176, label %192

176:                                              ; preds = %161
  %177 = load ptr, ptr %4, align 8, !tbaa !11
  %178 = getelementptr inbounds nuw %struct.ARKodeMemRec, ptr %177, i32 0, i32 101
  %179 = load ptr, ptr %178, align 8, !tbaa !70
  %180 = getelementptr inbounds nuw %struct.ARKodeHAdaptMemRec, ptr %179, i32 0, i32 15
  %181 = load ptr, ptr %180, align 8, !tbaa !71
  %182 = load ptr, ptr %4, align 8, !tbaa !11
  %183 = getelementptr inbounds nuw %struct.ARKodeMemRec, ptr %182, i32 0, i32 92
  %184 = load double, ptr %183, align 8, !tbaa !29
  %185 = load double, ptr %5, align 8, !tbaa !9
  %186 = call i32 @SUNAdaptController_UpdateH(ptr noundef %181, double noundef %184, double noundef %185)
  store i32 %186, ptr %6, align 4, !tbaa !38
  %187 = load i32, ptr %6, align 4, !tbaa !38
  %188 = icmp ne i32 %187, 0
  br i1 %188, label %189, label %191

189:                                              ; preds = %176
  %190 = load ptr, ptr %4, align 8, !tbaa !11
  call void (ptr, i32, i32, ptr, ptr, ptr, ...) @arkProcessError(ptr noundef %190, i32 noundef -47, i32 noundef 2663, ptr noundef @__func__.arkCompleteStep, ptr noundef @.str, ptr noundef @.str.108)
  store i32 -47, ptr %3, align 4
  store i32 1, ptr %8, align 4
  br label %229

191:                                              ; preds = %176
  br label %192

192:                                              ; preds = %191, %161
  %193 = load ptr, ptr %4, align 8, !tbaa !11
  %194 = getelementptr inbounds nuw %struct.ARKodeMemRec, ptr %193, i32 0, i32 108
  %195 = load i64, ptr %194, align 8, !tbaa !61
  %196 = add nsw i64 %195, 1
  store i64 %196, ptr %194, align 8, !tbaa !61
  %197 = load ptr, ptr %4, align 8, !tbaa !11
  %198 = getelementptr inbounds nuw %struct.ARKodeMemRec, ptr %197, i32 0, i32 92
  %199 = load double, ptr %198, align 8, !tbaa !29
  %200 = load ptr, ptr %4, align 8, !tbaa !11
  %201 = getelementptr inbounds nuw %struct.ARKodeMemRec, ptr %200, i32 0, i32 120
  store double %199, ptr %201, align 8, !tbaa !67
  %202 = load ptr, ptr %4, align 8, !tbaa !11
  %203 = getelementptr inbounds nuw %struct.ARKodeMemRec, ptr %202, i32 0, i32 98
  %204 = load double, ptr %203, align 8, !tbaa !22
  %205 = load ptr, ptr %4, align 8, !tbaa !11
  %206 = getelementptr inbounds nuw %struct.ARKodeMemRec, ptr %205, i32 0, i32 118
  store double %204, ptr %206, align 8, !tbaa !23
  %207 = load ptr, ptr %4, align 8, !tbaa !11
  %208 = getelementptr inbounds nuw %struct.ARKodeMemRec, ptr %207, i32 0, i32 92
  %209 = load double, ptr %208, align 8, !tbaa !29
  %210 = load ptr, ptr %4, align 8, !tbaa !11
  %211 = getelementptr inbounds nuw %struct.ARKodeMemRec, ptr %210, i32 0, i32 97
  %212 = load double, ptr %211, align 8, !tbaa !24
  %213 = fmul double %209, %212
  %214 = load ptr, ptr %4, align 8, !tbaa !11
  %215 = getelementptr inbounds nuw %struct.ARKodeMemRec, ptr %214, i32 0, i32 95
  store double %213, ptr %215, align 8, !tbaa !25
  %216 = load ptr, ptr %4, align 8, !tbaa !11
  %217 = getelementptr inbounds nuw %struct.ARKodeMemRec, ptr %216, i32 0, i32 101
  %218 = load ptr, ptr %217, align 8, !tbaa !70
  %219 = getelementptr inbounds nuw %struct.ARKodeHAdaptMemRec, ptr %218, i32 0, i32 8
  %220 = load double, ptr %219, align 8, !tbaa !136
  %221 = load ptr, ptr %4, align 8, !tbaa !11
  %222 = getelementptr inbounds nuw %struct.ARKodeMemRec, ptr %221, i32 0, i32 101
  %223 = load ptr, ptr %222, align 8, !tbaa !70
  %224 = getelementptr inbounds nuw %struct.ARKodeHAdaptMemRec, ptr %223, i32 0, i32 0
  store double %220, ptr %224, align 8, !tbaa !135
  %225 = load ptr, ptr %4, align 8, !tbaa !11
  %226 = getelementptr inbounds nuw %struct.ARKodeMemRec, ptr %225, i32 0, i32 128
  store i32 0, ptr %226, align 4, !tbaa !43
  %227 = load ptr, ptr %4, align 8, !tbaa !11
  %228 = getelementptr inbounds nuw %struct.ARKodeMemRec, ptr %227, i32 0, i32 130
  store i32 0, ptr %228, align 4, !tbaa !45
  store i32 0, ptr %3, align 4
  store i32 1, ptr %8, align 4
  br label %229

229:                                              ; preds = %192, %189, %158, %140
  call void @llvm.lifetime.end.p0(i64 8, ptr %7) #10
  call void @llvm.lifetime.end.p0(i64 4, ptr %6) #10
  %230 = load i32, ptr %3, align 4
  ret i32 %230
}