; Function Attrs: nounwind uwtable
define i32 @arkCompleteStep(ptr noundef initializes((752, 760)) %0, double noundef %1) local_unnamed_addr #0 {
  %3 = alloca double, align 8
  %4 = alloca double, align 8
  %5 = getelementptr inbounds nuw i8, ptr %0, i64 1032
  %6 = load i32, ptr %5, align 8, !tbaa !153
  %.not = icmp eq i32 %6, 0
  %7 = getelementptr inbounds nuw i8, ptr %0, i64 896
  %8 = load double, ptr %7, align 8, !tbaa !18
  %9 = getelementptr inbounds nuw i8, ptr %0, i64 704
  %10 = load double, ptr %9, align 8, !tbaa !24
  br i1 %.not, label %18, label %11

11:                                               ; preds = %2
  %12 = getelementptr inbounds nuw i8, ptr %0, i64 904
  %13 = load double, ptr %12, align 8, !tbaa !113
  call void @llvm.lifetime.start.p0(i64 8, ptr nonnull %3)
  %14 = fsub double %10, %13
  store volatile double %14, ptr %3, align 8, !tbaa !113
  call void @llvm.lifetime.start.p0(i64 8, ptr nonnull %4)
  %.0..0..0..0..0..0.2.i = load volatile double, ptr %3, align 8, !tbaa !113
  %15 = fadd double %8, %.0..0..0..0..0..0.2.i
  store volatile double %15, ptr %4, align 8, !tbaa !113
  %.0..0..0..0..0..0..i = load volatile double, ptr %4, align 8, !tbaa !113
  %16 = fsub double %.0..0..0..0..0..0..i, %8
  %.0..0..0..0..0..0.3.i = load volatile double, ptr %3, align 8, !tbaa !113
  %17 = fsub double %16, %.0..0..0..0..0..0.3.i
  store double %17, ptr %12, align 8, !tbaa !113
  %.0..0..0..0..0..0.1.i = load volatile double, ptr %4, align 8, !tbaa !113
  call void @llvm.lifetime.end.p0(i64 8, ptr nonnull %4)
  call void @llvm.lifetime.end.p0(i64 8, ptr nonnull %3)
  br label %20

18:                                               ; preds = %2
  %19 = fadd double %8, %10
  br label %20

20:                                               ; preds = %18, %11
  %21 = phi double [ %19, %18 ], [ %.0..0..0..0..0..0.1.i, %11 ]
  %22 = getelementptr inbounds nuw i8, ptr %0, i64 752
  store double %21, ptr %22, align 8, !tbaa !113
  %23 = getelementptr inbounds nuw i8, ptr %0, i64 680
  %24 = load i32, ptr %23, align 8, !tbaa !21
  %.not70 = icmp eq i32 %24, 0
  br i1 %.not70, label %39, label %25

25:                                               ; preds = %20
  %26 = getelementptr inbounds nuw i8, ptr %0, i64 8
  %27 = load double, ptr %26, align 8, !tbaa !23
  %28 = fmul double %27, 1.000000e+02
  %29 = tail call double @llvm.fabs.f64(double %21)
  %30 = tail call double @llvm.fabs.f64(double %10)
  %31 = fadd double %29, %30
  %32 = fmul double %28, %31
  %33 = getelementptr inbounds nuw i8, ptr %0, i64 688
  %34 = load double, ptr %33, align 8, !tbaa !22
  %35 = fsub double %21, %34
  %36 = tail call double @llvm.fabs.f64(double %35)
  %37 = fcmp ugt double %36, %32
  br i1 %37, label %39, label %38

38:                                               ; preds = %25
  store double %34, ptr %22, align 8, !tbaa !17
  br label %39

39:                                               ; preds = %25, %38, %20
  %40 = phi double [ %21, %25 ], [ %34, %38 ], [ %21, %20 ]
  %41 = getelementptr inbounds nuw i8, ptr %0, i64 928
  %42 = load i32, ptr %41, align 8, !tbaa !154
  switch i32 %42, label %51 [
    i32 0, label %55
    i32 1, label %43
    i32 2, label %47
  ]

43:                                               ; preds = %39
  %44 = getelementptr inbounds nuw i8, ptr %0, i64 944
  %45 = load double, ptr %44, align 8, !tbaa !82
  %46 = fcmp ogt double %1, %45
  %. = select i1 %46, double %1, double %45
  store double %., ptr %44, align 8, !tbaa !82
  br label %55

47:                                               ; preds = %39
  %48 = getelementptr inbounds nuw i8, ptr %0, i64 944
  %49 = load double, ptr %48, align 8, !tbaa !82
  %50 = fadd double %1, %49
  store double %50, ptr %48, align 8, !tbaa !82
  br label %55

51:                                               ; preds = %39
  %52 = getelementptr inbounds nuw i8, ptr %0, i64 944
  %53 = load double, ptr %52, align 8, !tbaa !82
  %54 = tail call double @llvm.fmuladd.f64(double %1, double %10, double %53)
  store double %54, ptr %52, align 8, !tbaa !82
  br label %55

55:                                               ; preds = %39, %43, %51, %47
  %56 = getelementptr inbounds nuw i8, ptr %0, i64 1008
  %57 = load ptr, ptr %56, align 8, !tbaa !155
  %.not72 = icmp eq ptr %57, null
  br i1 %.not72, label %64, label %58

58:                                               ; preds = %55
  %59 = getelementptr inbounds nuw i8, ptr %0, i64 584
  %60 = load ptr, ptr %59, align 8, !tbaa !106
  %61 = getelementptr inbounds nuw i8, ptr %0, i64 1016
  %62 = load ptr, ptr %61, align 8, !tbaa !156
  %63 = tail call i32 %57(double noundef %40, ptr noundef %60, ptr noundef %62) #16
  %.not73 = icmp eq i32 %63, 0
  br i1 %.not73, label %64, label %103

64:                                               ; preds = %58, %55
  %65 = getelementptr inbounds nuw i8, ptr %0, i64 664
  %66 = load ptr, ptr %65, align 8, !tbaa !33
  %.not74 = icmp eq ptr %66, null
  br i1 %.not74, label %70, label %67

67:                                               ; preds = %64
  %68 = load double, ptr %22, align 8, !tbaa !17
  %69 = tail call i32 @arkInterpUpdate(ptr noundef nonnull %0, ptr noundef nonnull %66, double noundef %68) #16
  %.not75 = icmp eq i32 %69, 0
  br i1 %.not75, label %70, label %103

70:                                               ; preds = %67, %64
  %71 = getelementptr inbounds nuw i8, ptr %0, i64 584
  %72 = load ptr, ptr %71, align 8, !tbaa !106
  %73 = getelementptr inbounds nuw i8, ptr %0, i64 592
  %74 = load ptr, ptr %73, align 8, !tbaa !34
  tail call void @N_VScale(double noundef 1.000000e+00, ptr noundef %72, ptr noundef %74) #16
  %75 = getelementptr inbounds nuw i8, ptr %0, i64 608
  store i32 0, ptr %75, align 8, !tbaa !35
  %76 = getelementptr inbounds nuw i8, ptr %0, i64 776
  %77 = load ptr, ptr %76, align 8, !tbaa !78
  %78 = getelementptr inbounds nuw i8, ptr %77, i64 104
  %79 = load ptr, ptr %78, align 8, !tbaa !79
  %.not76 = icmp eq ptr %79, null
  br i1 %.not76, label %85, label %80

80:                                               ; preds = %70
  %81 = getelementptr inbounds nuw i8, ptr %0, i64 704
  %82 = load double, ptr %81, align 8, !tbaa !24
  %83 = tail call i32 @SUNAdaptController_UpdateH(ptr noundef nonnull %79, double noundef %82, double noundef %1) #16
  %.not77 = icmp eq i32 %83, 0
  br i1 %.not77, label %._crit_edge, label %84

._crit_edge:                                      ; preds = %80
  %.pre = load ptr, ptr %76, align 8, !tbaa !78
  br label %85

84:                                               ; preds = %80
  tail call void (ptr, i32, i32, ptr, ptr, ptr, ...) @arkProcessError(ptr noundef nonnull %0, i32 noundef -47, i32 noundef 2663, ptr noundef nonnull @__func__.arkCompleteStep, ptr noundef nonnull @.str, ptr noundef nonnull @.str.108)
  br label %103

85:                                               ; preds = %._crit_edge, %70
  %86 = phi ptr [ %.pre, %._crit_edge ], [ %77, %70 ]
  %87 = getelementptr inbounds nuw i8, ptr %0, i64 816
  %88 = load i64, ptr %87, align 8, !tbaa !133
  %89 = add nsw i64 %88, 1
  store i64 %89, ptr %87, align 8, !tbaa !133
  %90 = getelementptr inbounds nuw i8, ptr %0, i64 704
  %91 = load double, ptr %90, align 8, !tbaa !24
  %92 = getelementptr inbounds nuw i8, ptr %0, i64 912
  store double %91, ptr %92, align 8, !tbaa !75
  %93 = load double, ptr %22, align 8, !tbaa !17
  %94 = getelementptr inbounds nuw i8, ptr %0, i64 896
  store double %93, ptr %94, align 8, !tbaa !18
  %95 = getelementptr inbounds nuw i8, ptr %0, i64 744
  %96 = load double, ptr %95, align 8, !tbaa !19
  %97 = fmul double %91, %96
  %98 = getelementptr inbounds nuw i8, ptr %0, i64 728
  store double %97, ptr %98, align 8, !tbaa !20
  %99 = getelementptr inbounds nuw i8, ptr %86, i64 64
  %100 = load double, ptr %99, align 8, !tbaa !143
  store double %100, ptr %86, align 8, !tbaa !124
  %101 = getelementptr inbounds nuw i8, ptr %0, i64 964
  store i32 0, ptr %101, align 4, !tbaa !37
  %102 = getelementptr inbounds nuw i8, ptr %0, i64 972
  store i32 0, ptr %102, align 4, !tbaa !39
  br label %103

103:                                              ; preds = %67, %58, %85, %84
  %.0 = phi i32 [ -47, %84 ], [ 0, %85 ], [ -37, %58 ], [ %69, %67 ]
  ret i32 %.0
}